target datalayout = "e-m:e-p270:32:32-p271:32:32-p272:64:64-i64:64-i128:128-f80:128-n8:16:32:64-S128"
target triple = "x86_64-unknown-linux-gnu"

%struct.VirtIOGPUBase = type { %struct.VirtIODevice, ptr, %struct.virtio_gpu_base_conf, %struct.virtio_gpu_config, ptr, i32, i32, %struct.MemoryRegion, [16 x %struct.virtio_gpu_scanout], i32, [16 x %struct.virtio_gpu_requested_state] }
%struct.VirtIODevice = type { %struct.DeviceState, ptr, i8, i8, i16, i64, i64, i64, i64, ptr, i16, i32, i32, ptr, %struct.MemoryListener, i16, i8, i8, i8, i8, i8, i8, i8, i8, i8, ptr, ptr, i8, i8, ptr, ptr, %union.anon.1, %struct.EventNotifier, i8 }
%struct.DeviceState = type { %struct.Object, ptr, ptr, i8, i8, i64, ptr, i32, i8, ptr, %struct.NamedGPIOListHead, %struct.NamedClockListHead, %struct.BusStateHead, i32, i32, i32, %struct.ResettableState, ptr, %struct.MemReentrancyGuard }
%struct.Object = type { ptr, ptr, ptr, i32, ptr }
%struct.NamedGPIOListHead = type { ptr }
%struct.NamedClockListHead = type { ptr }
%struct.BusStateHead = type { ptr }
%struct.ResettableState = type { i32, i8, i8 }
%struct.MemReentrancyGuard = type { i8 }
%struct.MemoryListener = type { ptr, ptr, ptr, ptr, ptr, ptr, ptr, ptr, ptr, ptr, ptr, ptr, ptr, ptr, ptr, ptr, ptr, i32, ptr, ptr, %union.anon, %union.anon.0 }
%union.anon = type { %struct.QTailQLink }
%struct.QTailQLink = type { ptr, ptr }
%union.anon.0 = type { %struct.QTailQLink }
%union.anon.1 = type { %struct.QTailQLink }
%struct.EventNotifier = type { i32, i32, i8 }
%struct.virtio_gpu_base_conf = type { i32, i32, i32, i32, i64 }
%struct.virtio_gpu_config = type { i32, i32, i32, i32 }
%struct.MemoryRegion = type { %struct.Object, i8, i8, i8, i8, i8, i8, i8, i8, i8, i8, ptr, ptr, ptr, ptr, ptr, ptr, i32, i128, i64, ptr, i64, i8, i8, i8, i8, i8, ptr, i64, i32, %union.anon.2, %union.anon.3, %union.anon.4, ptr, i32, ptr, ptr, i8 }
%union.anon.2 = type { %struct.QTailQLink }
%union.anon.3 = type { %struct.QTailQLink }
%union.anon.4 = type { %struct.QTailQLink }
%struct.virtio_gpu_scanout = type { ptr, ptr, i32, i32, i32, i32, i32, i32, %struct.virtio_gpu_update_cursor, ptr }
%struct.virtio_gpu_update_cursor = type { %struct.virtio_gpu_ctrl_hdr, %struct.virtio_gpu_cursor_pos, i32, i32, i32, i32 }
%struct.virtio_gpu_ctrl_hdr = type { i32, i32, i64, i32, i8, [3 x i8] }
%struct.virtio_gpu_cursor_pos = type { i32, i32, i32, i32 }
%struct.virtio_gpu_requested_state = type { i16, i16, i32, i32, i32, i32, i32 }
%struct.VirtIOGPUBaseClass = type { %struct.VirtioDeviceClass, ptr }
%struct.VirtioDeviceClass = type { %struct.DeviceClass, ptr, ptr, ptr, ptr, ptr, ptr, ptr, ptr, ptr, ptr, ptr, ptr, i64, ptr, ptr, ptr, ptr, ptr, ptr, ptr, ptr, ptr, ptr, ptr }
%struct.DeviceClass = type { %struct.ObjectClass, [1 x i64], ptr, ptr, ptr, i8, i8, ptr, ptr, ptr, ptr, ptr }
%struct.ObjectClass = type { ptr, ptr, [4 x ptr], [4 x ptr], ptr, ptr }

@.str = private unnamed_addr constant [37 x i8] c"../qemu/hw/display/virtio-gpu-base.c\00", align 1
@.str.5 = private unnamed_addr constant [16 x i8] c"virtio-gpu-base\00", align 1
@.str.6 = private unnamed_addr constant [109 x i8] c"/home/dtcxzyw/WorkSpace/Projects/compilers/llvm-opt-benchmark/bench/qemu/qemu/include/hw/virtio/virtio-gpu.h\00", align 1
@.str.7 = private unnamed_addr constant [25 x i8] c"g->renderer_blocked >= 0\00", align 1
@__PRETTY_FUNCTION__.virtio_gpu_gl_block = private unnamed_addr constant [40 x i8] c"void virtio_gpu_gl_block(void *, _Bool)\00", align 1
@__func__.VIRTIO_GPU_BASE_GET_CLASS = private unnamed_addr constant [26 x i8] c"VIRTIO_GPU_BASE_GET_CLASS\00", align 1

; Function Attrs: nounwind sspstrong uwtable
define internal ptr @VIRTIO_GPU_BASE_GET_CLASS(ptr noundef %obj) #0 {
entry:
  %obj.addr = alloca ptr, align 8
  store ptr %obj, ptr %obj.addr, align 8
  %0 = load ptr, ptr %obj.addr, align 8
  %call = call ptr @object_get_class(ptr noundef %0)
  %call1 = call ptr @object_class_dynamic_cast_assert(ptr noundef %call, ptr noundef @.str.5, ptr noundef @.str.6, i32 noundef 30, ptr noundef @__func__.VIRTIO_GPU_BASE_GET_CLASS)
  ret ptr %call1
}

; Function Attrs: nounwind sspstrong uwtable
define internal void @virtio_gpu_gl_flushed(ptr noundef %opaque) #0 {
entry:
  %opaque.addr = alloca ptr, align 8
  %g = alloca ptr, align 8
  %vgc = alloca ptr, align 8
  store ptr %opaque, ptr %opaque.addr, align 8
  %0 = load ptr, ptr %opaque.addr, align 8
  store ptr %0, ptr %g, align 8
  %1 = load ptr, ptr %g, align 8
  %call = call ptr @VIRTIO_GPU_BASE_GET_CLASS(ptr noundef %1)
  store ptr %call, ptr %vgc, align 8
  %2 = load ptr, ptr %vgc, align 8
  %gl_flushed = getelementptr inbounds %struct.VirtIOGPUBaseClass, ptr %2, i32 0, i32 1
  %3 = load ptr, ptr %gl_flushed, align 8
  %tobool = icmp ne ptr %3, null
  br i1 %tobool, label %if.then, label %if.end

if.then:                                          ; preds = %entry
  %4 = load ptr, ptr %vgc, align 8
  %gl_flushed1 = getelementptr inbounds %struct.VirtIOGPUBaseClass, ptr %4, i32 0, i32 1
  %5 = load ptr, ptr %gl_flushed1, align 8
  %6 = load ptr, ptr %g, align 8
  call void %5(ptr noundef %6)
  br label %if.end

if.end:                                           ; preds = %if.then, %entry
  ret void
}

; Function Attrs: nounwind sspstrong uwtable
define internal void @virtio_gpu_gl_block(ptr noundef %opaque, i1 noundef zeroext %block) #0 {
entry:
  %opaque.addr = alloca ptr, align 8
  %block.addr = alloca i8, align 1
  %g = alloca ptr, align 8
  store ptr %opaque, ptr %opaque.addr, align 8
  %frombool = zext i1 %block to i8
  store i8 %frombool, ptr %block.addr, align 1
  %0 = load ptr, ptr %opaque.addr, align 8
  store ptr %0, ptr %g, align 8
  %1 = load i8, ptr %block.addr, align 1
  %tobool = trunc i8 %1 to i1
  br i1 %tobool, label %if.then, label %if.else

if.then:                                          ; preds = %entry
  %2 = load ptr, ptr %g, align 8
  %renderer_blocked = getelementptr inbounds %struct.VirtIOGPUBase, ptr %2, i32 0, i32 5
  %3 = load i32, ptr %renderer_blocked, align 16
  %inc = add i32 %3, 1
  store i32 %inc, ptr %renderer_blocked, align 16
  br label %if.end

if.else:                                          ; preds = %entry
  %4 = load ptr, ptr %g, align 8
  %renderer_blocked1 = getelementptr inbounds %struct.VirtIOGPUBase, ptr %4, i32 0, i32 5
  %5 = load i32, ptr %renderer_blocked1, align 16
  %dec = add i32 %5, -1
  store i32 %dec, ptr %renderer_blocked1, align 16
  br label %if.end

if.end:                                           ; preds = %if.else, %if.then
  %6 = load ptr, ptr %g, align 8
  %renderer_blocked2 = getelementptr inbounds %struct.VirtIOGPUBase, ptr %6, i32 0, i32 5
  %7 = load i32, ptr %renderer_blocked2, align 16
  %cmp = icmp sge i32 %7, 0
  br i1 %cmp, label %if.then3, label %if.else4

if.then3:                                         ; preds = %if.end
  br label %if.end5

if.else4:                                         ; preds = %if.end
  call void @__assert_fail(ptr noundef @.str.7, ptr noundef @.str, i32 noundef 137, ptr noundef @__PRETTY_FUNCTION__.virtio_gpu_gl_block) #4
  unreachable

if.end5:                                          ; preds = %if.then3
  %8 = load i8, ptr %block.addr, align 1
  %tobool6 = trunc i8 %8 to i1
  br i1 %tobool6, label %if.end10, label %land.lhs.true

land.lhs.true:                                    ; preds = %if.end5
  %9 = load ptr, ptr %g, align 8
  %renderer_blocked7 = getelementptr inbounds %struct.VirtIOGPUBase, ptr %9, i32 0, i32 5
  %10 = load i32, ptr %renderer_blocked7, align 16
  %cmp8 = icmp eq i32 %10, 0
  br i1 %cmp8, label %if.then9, label %if.end10

if.then9:                                         ; preds = %land.lhs.true
  %11 = load ptr, ptr %g, align 8
  call void @virtio_gpu_gl_flushed(ptr noundef %11)
  br label %if.end10

if.end10:                                         ; preds = %if.then9, %land.lhs.true, %if.end5
  ret void
}