; Function Attrs: nounwind sspstrong uwtable
define internal void @virtio_gpu_gl_block(ptr noundef %opaque, i1 noundef zeroext %block) #1 {
entry:
  %renderer_blocked = getelementptr inbounds nuw i8, ptr %opaque, i64 576
  %0 = load i32, ptr %renderer_blocked, align 16
  %. = select i1 %block, i32 1, i32 -1
  %dec = add i32 %0, %.
  store i32 %dec, ptr %renderer_blocked, align 16
  %cmp = icmp sgt i32 %dec, -1
  br i1 %cmp, label %if.end5, label %if.else4

if.else4:                                         ; preds = %entry
  tail call void @__assert_fail(ptr noundef nonnull @.str.7, ptr noundef nonnull @.str, i32 noundef 137, ptr noundef nonnull @__PRETTY_FUNCTION__.virtio_gpu_gl_block) #10
  unreachable

if.end5:                                          ; preds = %entry
  %cmp8 = icmp ne i32 %dec, 0
  %or.cond.not = or i1 %block, %cmp8
  br i1 %or.cond.not, label %if.end10, label %if.then9

if.then9:                                         ; preds = %if.end5
  %call.i.i = tail call ptr @object_get_class(ptr noundef nonnull %opaque) #9
  %call1.i.i = tail call ptr @object_class_dynamic_cast_assert(ptr noundef %call.i.i, ptr noundef nonnull @.str.5, ptr noundef nonnull @.str.6, i32 noundef 30, ptr noundef nonnull @__func__.VIRTIO_GPU_BASE_GET_CLASS) #9
  %gl_flushed.i = getelementptr inbounds nuw i8, ptr %call1.i.i, i64 368
  %1 = load ptr, ptr %gl_flushed.i, align 8
  %tobool.not.i = icmp eq ptr %1, null
  br i1 %tobool.not.i, label %if.end10, label %if.then.i

if.then.i:                                        ; preds = %if.then9
  tail call void %1(ptr noundef nonnull %opaque) #9
  br label %if.end10

if.end10:                                         ; preds = %if.then.i, %if.then9, %if.end5
  ret void
}